; Function Attrs: mustprogress nounwind uwtable
define dso_local void @_ZN4llvm20ReplaceInstWithValueERNS_21ilist_iterator_w_bitsINS_12ilist_detail12node_optionsINS_11InstructionELb0ELb0EvLb1ENS_10BasicBlockEEELb0ELb0EEEPNS_5ValueE(ptr nocapture noundef nonnull align 8 dereferenceable(10) %0, ptr noundef %1) local_unnamed_addr #0 {
  %3 = load ptr, ptr %0, align 8
  %4 = icmp eq ptr %3, null
  %5 = getelementptr inbounds i8, ptr %3, i64 -24
  %6 = select i1 %4, ptr null, ptr %5
  tail call void @_ZN4llvm5Value18replaceAllUsesWithEPS0_(ptr noundef nonnull align 8 dereferenceable(24) %6, ptr noundef %1) #21
  %7 = getelementptr inbounds nuw i8, ptr %6, i64 4
  %8 = load i32, ptr %7, align 4
  %9 = and i32 %8, 268435456
  %.not = icmp eq i32 %9, 0
  br i1 %.not, label %15, label %10

10:                                               ; preds = %2
  %11 = getelementptr inbounds nuw i8, ptr %1, i64 4
  %12 = load i32, ptr %11, align 4
  %13 = and i32 %12, 268435456
  %.not11 = icmp eq i32 %13, 0
  br i1 %.not11, label %14, label %15

14:                                               ; preds = %10
  tail call void @_ZN4llvm5Value8takeNameEPS0_(ptr noundef nonnull align 8 dereferenceable(24) %1, ptr noundef nonnull %6) #21
  br label %15

15:                                               ; preds = %14, %10, %2
  %16 = load ptr, ptr %0, align 8
  %17 = icmp eq ptr %16, null
  %18 = getelementptr inbounds i8, ptr %16, i64 -24
  %19 = select i1 %17, ptr null, ptr %18
  %20 = tail call { ptr, i64 } @_ZN4llvm11Instruction15eraseFromParentEv(ptr noundef nonnull align 8 dereferenceable(72) %19) #21
  %.fca.0.extract = extractvalue { ptr, i64 } %20, 0
  %.fca.1.extract = extractvalue { ptr, i64 } %20, 1
  %.sroa.2.0.extract.trunc = trunc i64 %.fca.1.extract to i16
  store ptr %.fca.0.extract, ptr %0, align 8
  %.sroa.22.0..sroa_idx = getelementptr inbounds i8, ptr %0, i64 8
  store i16 %.sroa.2.0.extract.trunc, ptr %.sroa.22.0..sroa_idx, align 8
  ret void
}